; Function Attrs: nounwind uwtable
define internal range(i32 0, 65536) i32 @fold_simplify_andk_shiftk(ptr noundef readonly captures(none) %0) #0 {
  %2 = getelementptr inbounds nuw i8, ptr %0, i64 32
  %3 = load ptr, ptr %2, align 8, !tbaa !30
  %4 = getelementptr inbounds nuw i8, ptr %0, i64 184
  %5 = getelementptr inbounds nuw i8, ptr %0, i64 194
  %6 = load i16, ptr %5, align 2, !tbaa !28
  %7 = zext i16 %6 to i64
  %8 = getelementptr inbounds nuw %union.IRIns, ptr %3, i64 %7
  %9 = getelementptr inbounds nuw i8, ptr %8, i64 5
  %10 = load i8, ptr %9, align 1, !tbaa !28
  %11 = icmp eq i8 %10, 23
  br i1 %11, label %12, label %44

12:                                               ; preds = %1
  %13 = load i32, ptr %8, align 8, !tbaa !28
  %14 = getelementptr inbounds nuw i8, ptr %0, i64 197
  %15 = load i8, ptr %14, align 1, !tbaa !28
  switch i8 %15, label %kfold_intop.exit [
    i8 41, label %16
    i8 42, label %18
    i8 43, label %20
    i8 45, label %22
    i8 47, label %24
    i8 33, label %25
    i8 51, label %36
    i8 35, label %26
    i8 36, label %28
    i8 37, label %31
    i8 50, label %34
  ]

16:                                               ; preds = %12
  %17 = add nsw i32 %13, -1
  br label %kfold_intop.exit

18:                                               ; preds = %12
  %19 = xor i32 %13, -1
  br label %kfold_intop.exit

20:                                               ; preds = %12
  %21 = sub nsw i32 0, %13
  br label %kfold_intop.exit

22:                                               ; preds = %12
  %23 = tail call i32 @lj_vm_modi(i32 noundef -1, i32 noundef %13) #12
  br label %kfold_intop.exit

24:                                               ; preds = %12
  br label %kfold_intop.exit

25:                                               ; preds = %12
  br label %kfold_intop.exit

26:                                               ; preds = %12
  %27 = xor i32 %13, -1
  br label %kfold_intop.exit

28:                                               ; preds = %12
  %29 = and i32 %13, 31
  %30 = shl nsw i32 -1, %29
  br label %kfold_intop.exit

31:                                               ; preds = %12
  %32 = and i32 %13, 31
  %33 = lshr i32 -1, %32
  br label %kfold_intop.exit

34:                                               ; preds = %12
  %35 = tail call i32 @llvm.smin.i32(i32 %13, i32 -1)
  br label %kfold_intop.exit

36:                                               ; preds = %12
  %37 = tail call i32 @llvm.smax.i32(i32 %13, i32 -1)
  br label %kfold_intop.exit

kfold_intop.exit:                                 ; preds = %12, %16, %18, %20, %22, %24, %25, %26, %28, %31, %34, %36
  %.0.i = phi i32 [ %37, %36 ], [ %35, %34 ], [ %33, %31 ], [ %30, %28 ], [ %27, %26 ], [ %13, %25 ], [ 1, %24 ], [ %23, %22 ], [ %21, %20 ], [ %19, %18 ], [ %17, %16 ], [ -1, %12 ]
  %38 = getelementptr inbounds nuw i8, ptr %0, i64 208
  %39 = load i32, ptr %38, align 8, !tbaa !28
  %40 = icmp eq i32 %.0.i, %39
  br i1 %40, label %41, label %44

41:                                               ; preds = %kfold_intop.exit
  %42 = load i16, ptr %4, align 8, !tbaa !28
  %43 = zext i16 %42 to i32
  br label %44

44:                                               ; preds = %1, %kfold_intop.exit, %41
  %.0 = phi i32 [ %43, %41 ], [ 0, %kfold_intop.exit ], [ 0, %1 ]
  ret i32 %.0
}